Certificate:
    Data:
        Version: 3 (0x2)
        Serial Number: 16234019861976235603 (0xe14ad30d8dbabe53)
    Signature Algorithm: sha256WithRSAEncryption
        Issuer: CN=scandoc_test_ca, O=Quantex, OU=testing
        Validity
            Not Before: Mar  7 10:42:37 2016 GMT
            Not After : Mar  5 10:42:37 2026 GMT
        Subject: CN=scandoc_test_ca, O=Quantex, OU=testing
        Subject Public Key Info:
            Public Key Algorithm: rsaEncryption
                Public-Key: (1024 bit)
                Modulus:
                    00:cb:20:d4:da:5a:84:8f:a9:e9:4c:29:5d:17:52:
                    59:7c:a6:19:ef:b9:63:98:f6:97:fb:22:d3:1d:f7:
                    15:50:9e:86:72:83:d8:ef:50:28:6a:9b:68:52:4e:
                    5e:91:95:e3:3e:dc:e9:ad:3b:50:ee:ab:4d:b1:58:
                    c1:c1:cf:66:d1:93:78:49:5f:7b:0e:b7:90:b9:8b:
                    1f:6d:2d:bb:3c:a7:3c:84:d4:95:7d:b6:54:dd:2e:
                    ee:16:a4:80:29:f8:8d:2e:f0:e1:63:61:1e:e2:32:
                    38:5d:68:be:c4:90:60:8d:85:0d:d3:4d:ae:93:f2:
                    14:82:8a:92:d0:de:12:d1:c3
                Exponent: 65537 (0x10001)
        X509v3 extensions:
            X509v3 Subject Key Identifier: 
                D7:BD:4E:96:23:48:28:8F:E5:47:7D:D5:AD:78:48:05:AA:AD:C4:D9
            X509v3 Authority Key Identifier: 
                keyid:D7:BD:4E:96:23:48:28:8F:E5:47:7D:D5:AD:78:48:05:AA:AD:C4:D9

            X509v3 Basic Constraints: 
                CA:TRUE
    Signature Algorithm: sha256WithRSAEncryption
         52:12:de:38:5f:a3:e1:e5:cf:cc:ca:b3:9d:eb:d7:3b:71:39:
         f7:94:16:28:24:6e:ca:db:8b:59:ff:be:c1:94:c7:06:60:c7:
         35:15:6e:ee:27:e5:72:6b:4b:da:50:bc:33:5e:0d:90:81:83:
         51:77:92:a3:e0:a2:43:57:1c:f7:0b:f9:e6:6f:3a:59:66:72:
         ae:e3:a1:99:66:84:ba:e2:20:57:59:11:bd:91:c0:bd:9a:74:
         8f:2a:ed:4a:12:62:27:63:e7:37:56:35:40:c8:56:6d:4d:fe:
         65:62:be:f7:c8:d6:1a:b8:35:88:e9:6d:bd:51:ff:06:45:fc:
         ee:c5
-----BEGIN CERTIFICATE-----
MIICSjCCAbOgAwIBAgIJAOFK0w2Nur5TMA0GCSqGSIb3DQEBCwUAMD4xGDAWBgNV
BAMMD3NjYW5kb2NfdGVzdF9jYTEQMA4GA1UECgwHUXVhbnRleDEQMA4GA1UECwwH
dGVzdGluZzAeFw0xNjAzMDcxMDQyMzdaFw0yNjAzMDUxMDQyMzdaMD4xGDAWBgNV
BAMMD3NjYW5kb2NfdGVzdF9jYTEQMA4GA1UECgwHUXVhbnRleDEQMA4GA1UECwwH
dGVzdGluZzCBnzANBgkqhkiG9w0BAQEFAAOBjQAwgYkCgYEAyyDU2lqEj6npTCld
F1JZfKYZ77ljmPaX+yLTHfcVUJ6GcoPY71AoaptoUk5ekZXjPtzprTtQ7qtNsVjB
wc9m0ZN4SV97DreQuYsfbS27PKc8hNSVfbZU3S7uFqSAKfiNLvDhY2Ee4jI4XWi+
xJBgjYUN002uk/IUgoqS0N4S0cMCAwEAAaNQME4wHQYDVR0OBBYEFNe9TpYjSCiP
5Ud91a14SAWqrcTZMB8GA1UdIwQYMBaAFNe9TpYjSCiP5Ud91a14SAWqrcTZMAwG
A1UdEwQFMAMBAf8wDQYJKoZIhvcNAQELBQADgYEAUhLeOF+j4eXPzMqznevXO3E5
95QWKCRuytuLWf++wZTHBmDHNRVu7iflcmtL2lC8M14NkIGDUXeSo+CiQ1cc9wv5
5m86WWZyruOhmWaEuuIgV1kRvZHAvZp0jyrtShJiJ2PnN1Y1QMhWbU3+ZWK+98jW
Grg1iOltvVH/BkX87sU=
-----END CERTIFICATE-----
