Certificate:
    Data:
        Version: 3 (0x2)
        Serial Number: 1 (0x1)
    Signature Algorithm: sha256WithRSAEncryption
        Issuer: CN=scandoc_test_ca, O=Quantex, OU=testing
        Validity
            Not Before: Mar  7 10:42:37 2016 GMT
            Not After : Dec  5 10:42:37 2025 GMT
        Subject: CN=scandoc_client_12345
        Subject Public Key Info:
            Public Key Algorithm: rsaEncryption
                Public-Key: (1024 bit)
                Modulus:
                    00:e2:4f:54:ea:c4:90:4d:cd:4d:3b:b4:83:57:1b:
                    5e:83:14:7a:01:3a:1d:ce:90:75:2b:7b:56:f8:90:
                    e8:d7:22:63:cc:2a:92:5d:d3:b4:91:ff:39:58:46:
                    cb:67:97:35:7e:83:df:68:8f:dc:3b:04:f4:35:3d:
                    67:25:38:9f:63:a3:30:40:7b:db:50:88:ab:b8:96:
                    2e:4f:50:6a:e1:26:d3:3f:fb:50:64:48:02:35:2d:
                    26:2b:42:7f:4e:81:31:36:6b:f8:7c:fd:b5:35:18:
                    48:7c:42:dd:bd:90:9e:b1:5b:b1:e3:fd:a1:41:cb:
                    1a:b0:0f:00:f8:ca:42:e0:df
                Exponent: 65537 (0x10001)
        X509v3 extensions:
            X509v3 Basic Constraints: 
                CA:FALSE
            X509v3 Key Usage: 
                Key Encipherment, Key Agreement
            X509v3 Extended Key Usage: 
                TLS Web Client Authentication
    Signature Algorithm: sha256WithRSAEncryption
         54:ff:ad:f0:99:4c:35:f8:d4:dc:d4:5f:20:ee:08:dd:f8:e8:
         bd:e0:bf:bd:6d:87:e6:59:4f:f2:70:15:04:1c:8a:9a:51:90:
         66:62:fb:83:01:7b:fc:7e:6d:91:b3:b5:de:6e:70:cc:6d:5f:
         a7:da:34:79:05:6e:c1:15:4c:7c:87:85:3f:8f:74:97:cd:1e:
         48:06:d5:b4:1a:30:d5:fa:ce:5b:64:7b:cb:54:23:ae:cc:80:
         17:4e:73:02:0b:1b:77:fd:f5:97:e1:73:95:66:47:04:28:ec:
         60:1f:ac:8c:d2:88:3e:0d:db:a1:42:80:1d:16:13:2d:dd:fe:
         d9:5d
-----BEGIN CERTIFICATE-----
MIICAjCCAWugAwIBAgIBATANBgkqhkiG9w0BAQsFADA+MRgwFgYDVQQDDA9zY2Fu
ZG9jX3Rlc3RfY2ExEDAOBgNVBAoMB1F1YW50ZXgxEDAOBgNVBAsMB3Rlc3Rpbmcw
HhcNMTYwMzA3MTA0MjM3WhcNMjUxMjA1MTA0MjM3WjAfMR0wGwYDVQQDDBRzY2Fu
ZG9jX2NsaWVudF8xMjM0NTCBnzANBgkqhkiG9w0BAQEFAAOBjQAwgYkCgYEA4k9U
6sSQTc1NO7SDVxtegxR6ATodzpB1K3tW+JDo1yJjzCqSXdO0kf85WEbLZ5c1foPf
aI/cOwT0NT1nJTifY6MwQHvbUIiruJYuT1Bq4SbTP/tQZEgCNS0mK0J/ToExNmv4
fP21NRhIfELdvZCesVux4/2hQcsasA8A+MpC4N8CAwEAAaMvMC0wCQYDVR0TBAIw
ADALBgNVHQ8EBAMCAygwEwYDVR0lBAwwCgYIKwYBBQUHAwIwDQYJKoZIhvcNAQEL
BQADgYEAVP+t8JlMNfjU3NRfIO4I3fjoveC/vW2H5llP8nAVBByKmlGQZmL7gwF7
/H5tkbO13m5wzG1fp9o0eQVuwRVMfIeFP490l80eSAbVtBow1frOW2R7y1QjrsyA
F05zAgsbd/31l+FzlWZHBCjsYB+sjNKIPg3boUKAHRYTLd3+2V0=
-----END CERTIFICATE-----
-----BEGIN PRIVATE KEY-----
MIICdwIBADANBgkqhkiG9w0BAQEFAASCAmEwggJdAgEAAoGBAOJPVOrEkE3NTTu0
g1cbXoMUegE6Hc6QdSt7VviQ6NciY8wqkl3TtJH/OVhGy2eXNX6D32iP3DsE9DU9
ZyU4n2OjMEB721CIq7iWLk9QauEm0z/7UGRIAjUtJitCf06BMTZr+Hz9tTUYSHxC
3b2QnrFbseP9oUHLGrAPAPjKQuDfAgMBAAECgYEAuVy/MffENmWU//UvqrY5KGYq
ND0U0u9ReUbyCnAutp9tXHn2HrHbccW5g4ug6P1aDIEZCPzkJtc86yqbBEqniRtg
PYoKPecVca2JQYfh50U0RklFxfEIJQ8DJMIxo5voVvyUQETJl4Iwg8E7ZVij1DLd
CteXK46x1BvWAsUjLAECQQD27LJbS+iyQVzKnVTgD32alCPeKes2QIHjLhSj15D2
0Ern6apZGO16hhWz+6HjZy0erevJEGSNecbFkc2UrNYBAkEA6qCsDUjY4e0oIvDu
myrDMjozOOa+F+TgcSL8x3oMdiwVb8E3VSc/59oTHBwN+FfwBqk5hkjABqOcjIyR
PRB23wJACLMcMZVCFI2y/DyA0ggZr8mKXfhyHg41xVBJT+B3bgq2qOcVpl/3dfql
Zxr1gDKRZ2RPS101fbqNo0ZYzOUuAQJABH1KjX6FV91X1UNS7Xkl/wIKFN6laIOi
n8eRmqeFMYWqa1cBHgoAOQl9MB6BTe0w1I/MX/toYTgkOLQ/2zFDdQJBAMXf6yUe
mCuoUw6/XOa4ikcRBHAMq4HeiSjfjZ/GfSC9DQhfAkvj7Z22RQ3de0WRYMLzNo63
c+gbYp8PSkzyab0=
-----END PRIVATE KEY-----
