Certificate:
    Data:
        Version: 3 (0x2)
        Serial Number: 0 (0x0)
    Signature Algorithm: sha256WithRSAEncryption
        Issuer: CN=scandoc_test_ca, O=Quantex, OU=testing
        Validity
            Not Before: Mar  7 10:42:37 2016 GMT
            Not After : Dec  5 10:42:37 2025 GMT
        Subject: CN=scandoc_server
        Subject Public Key Info:
            Public Key Algorithm: rsaEncryption
                Public-Key: (1024 bit)
                Modulus:
                    00:d7:32:7c:68:8e:bb:70:da:f1:d5:70:13:02:6b:
                    40:2f:6b:b1:b4:03:54:d9:cb:53:99:9a:29:be:b1:
                    43:76:b5:d3:ad:32:32:03:99:12:16:ec:64:a5:4c:
                    a3:8d:b9:3e:5e:df:ba:8d:03:0c:3f:29:ec:27:92:
                    17:01:59:e3:29:01:60:c3:c2:8b:34:64:7e:82:37:
                    b6:19:ac:a1:40:ba:57:68:9b:c3:91:72:4c:03:c9:
                    b6:6d:e9:ac:dd:54:07:ae:4a:66:08:68:55:49:f8:
                    35:6d:62:cb:3c:ca:31:9b:92:a3:5e:fa:d3:5a:73:
                    c9:cb:0e:cf:64:46:7e:e8:d3
                Exponent: 65537 (0x10001)
        X509v3 extensions:
            X509v3 Basic Constraints: 
                CA:FALSE
            X509v3 Key Usage: 
                Key Encipherment, Key Agreement
            X509v3 Extended Key Usage: 
                TLS Web Server Authentication
            X509v3 Subject Alternative Name: 
                IP Address:127.0.0.1
    Signature Algorithm: sha256WithRSAEncryption
         20:56:0f:b2:e2:83:10:8f:d1:c3:4a:ac:79:92:7f:13:1f:90:
         cb:35:48:f7:0f:a9:cb:6b:41:2a:b3:0b:66:52:95:f6:4d:f5:
         53:df:63:1b:a0:78:f1:ef:80:bd:de:ab:5b:ec:bd:8a:ec:09:
         80:5e:48:96:f0:68:66:ab:02:b1:25:4e:23:d4:db:a6:c1:c7:
         97:12:7c:2d:1b:43:7d:20:cd:f4:73:a2:5f:71:ab:52:dc:2d:
         6c:f7:83:22:94:15:a7:f2:cc:5f:ed:2f:0f:a3:ac:f7:13:36:
         9f:81:b8:1e:30:46:32:bc:27:64:22:38:8e:5a:ce:31:c6:98:
         e8:ee
-----BEGIN CERTIFICATE-----
MIICDTCCAXagAwIBAgIBADANBgkqhkiG9w0BAQsFADA+MRgwFgYDVQQDDA9zY2Fu
ZG9jX3Rlc3RfY2ExEDAOBgNVBAoMB1F1YW50ZXgxEDAOBgNVBAsMB3Rlc3Rpbmcw
HhcNMTYwMzA3MTA0MjM3WhcNMjUxMjA1MTA0MjM3WjAZMRcwFQYDVQQDDA5zY2Fu
ZG9jX3NlcnZlcjCBnzANBgkqhkiG9w0BAQEFAAOBjQAwgYkCgYEA1zJ8aI67cNrx
1XATAmtAL2uxtANU2ctTmZopvrFDdrXTrTIyA5kSFuxkpUyjjbk+Xt+6jQMMPyns
J5IXAVnjKQFgw8KLNGR+gje2GayhQLpXaJvDkXJMA8m2bems3VQHrkpmCGhVSfg1
bWLLPMoxm5KjXvrTWnPJyw7PZEZ+6NMCAwEAAaNAMD4wCQYDVR0TBAIwADALBgNV
HQ8EBAMCAygwEwYDVR0lBAwwCgYIKwYBBQUHAwEwDwYDVR0RBAgwBocEfwAAATAN
BgkqhkiG9w0BAQsFAAOBgQAgVg+y4oMQj9HDSqx5kn8TH5DLNUj3D6nLa0Eqswtm
UpX2TfVT32MboHjx74C93qtb7L2K7AmAXkiW8GhmqwKxJU4j1NumwceXEnwtG0N9
IM30c6JfcatS3C1s94MilBWn8sxf7S8Po6z3EzafgbgeMEYyvCdkIjiOWs4xxpjo
7g==
-----END CERTIFICATE-----
-----BEGIN PRIVATE KEY-----
MIICdQIBADANBgkqhkiG9w0BAQEFAASCAl8wggJbAgEAAoGBANcyfGiOu3Da8dVw
EwJrQC9rsbQDVNnLU5maKb6xQ3a1060yMgOZEhbsZKVMo425Pl7fuo0DDD8p7CeS
FwFZ4ykBYMPCizRkfoI3thmsoUC6V2ibw5FyTAPJtm3prN1UB65KZghoVUn4NW1i
yzzKMZuSo17601pzycsOz2RGfujTAgMBAAECgYBEWEZmtp4VM5QGo3eGFyXlaaCg
eUZjfU3pxKppY8b3VrwJj52OwviZyy4TyYlQI3sJiqimzEcBcIEN+DnSNggMkrAw
dJBnMIOwToHghDSGxyh/IJSuAAMA2o1nghtZkO3mDe1KRwCGIThPMOrlT5eNS+cE
pnVlBsaQscBT0mbOwQJBAPOl+A6EUkRhGdoyT8CZnA4KmZJ3oOJ/+x8nS9Chm/xR
fGQ8Tph+j6MF3TQyhU2Dm8+B8EHszsZ8IP7BE9ZHiWMCQQDiG0ho9x5VBCJz+KUr
muE28qzUqFNkK8MITVShPLPx8/NSYZyiUjM27IBywkLoPV/s/nI4w8TqlYYlAGWC
tPXRAkA5dCOgWLeFhFgySbbgtdhEv18jWK5JeuBeokeQdOtxfk2U3VuzPfTk/lcB
HgCtHKG7NurOwOapi0/EgwcIemn9AkATR2hBKvD3JscZRFYxBZ+2Y7LA3yldHS4g
Axf4N4jQVJCmsZP9cyzSvg+luVKjIriPKJLsrCSaK+2oMgR1xKBBAkBJl093eWah
vriTc/y/calA1cxrd5UABTRJixaHsIIHxOpuH0/AcxGjrL7ihO9xxW/21dZ1Fmp5
NvKQYV/2hZiT
-----END PRIVATE KEY-----
